; Function Attrs: mustprogress nounwind uwtable
define void @_ZN3zmq15tcp_connecter_tD2Ev(ptr noundef nonnull align 8 dereferenceable(1552) %0) unnamed_addr #4 align 2 personality ptr @__gxx_personality_v0 {
  %2 = getelementptr inbounds nuw i8, ptr %0, i64 1544
  %3 = load i8, ptr %2, align 8, !tbaa !6, !range !72, !noundef !73
  %4 = trunc nuw i8 %3 to i1
  br i1 %4, label %5, label %10, !prof !74

5:                                                ; preds = %1
  %6 = load ptr, ptr @stderr, align 8, !tbaa !70
  %7 = tail call i32 (ptr, ptr, ...) @fprintf(ptr noundef %6, ptr noundef nonnull @.str, ptr noundef nonnull @.str.3, ptr noundef nonnull @.str.2, i32 noundef 52) #17
  %8 = load ptr, ptr @stderr, align 8, !tbaa !70
  %9 = tail call i32 @fflush(ptr noundef %8)
  invoke void @_ZN3zmq9zmq_abortEPKc(ptr noundef nonnull @.str.3)
          to label %10 unwind label %11

10:                                               ; preds = %5, %1
  tail call void @_ZN3zmq23stream_connecter_base_tD2Ev(ptr noundef nonnull align 8 dereferenceable(1544) %0) #16
  ret void

11:                                               ; preds = %5
  %12 = landingpad { ptr, i32 }
          catch ptr null
  %13 = extractvalue { ptr, i32 } %12, 0
  tail call void @__clang_call_terminate(ptr %13) #18
  unreachable
}